; Function Attrs: mustprogress uwtable
define void @_ZN2cv8superres9arrGetMatERKNS_11_InputArrayERNS_3MatE(ptr dead_on_unwind noalias writable sret(%"class.cv::Mat") align 8 %0, ptr noundef nonnull align 8 dereferenceable(24) %1, ptr noundef nonnull align 8 dereferenceable(96) %2) local_unnamed_addr #0 personality ptr @__gxx_personality_v0 {
  %4 = alloca %"class.cv::cuda::GpuMat", align 8
  %5 = alloca %"class.cv::_OutputArray", align 8
  %6 = alloca %"class.cv::ogl::Buffer", align 8
  %7 = alloca %"class.cv::_OutputArray", align 8
  %8 = tail call noundef i32 @_ZNK2cv11_InputArray4kindEv(ptr noundef nonnull align 8 dereferenceable(24) %1)
  switch i32 %8, label %50 [
    i32 589824, label %9
    i32 458752, label %21
  ]

9:                                                ; preds = %3
  call void @llvm.lifetime.start.p0(i64 64, ptr nonnull %4) #11
  call void @_ZNK2cv11_InputArray9getGpuMatEv(ptr dead_on_unwind nonnull writable sret(%"class.cv::cuda::GpuMat") align 8 %4, ptr noundef nonnull align 8 dereferenceable(24) %1)
  call void @llvm.lifetime.start.p0(i64 24, ptr nonnull %5) #11
  %10 = getelementptr inbounds nuw i8, ptr %5, i64 8
  %11 = getelementptr inbounds nuw i8, ptr %5, i64 16
  store i64 0, ptr %11, align 8
  store i32 33619968, ptr %5, align 8, !tbaa !3
  store ptr %2, ptr %10, align 8, !tbaa !10
  invoke void @_ZNK2cv4cuda6GpuMat8downloadERKNS_12_OutputArrayE(ptr noundef nonnull align 8 dereferenceable(64) %4, ptr noundef nonnull align 8 dereferenceable(24) %5)
          to label %12 unwind label %16

12:                                               ; preds = %9
  call void @llvm.lifetime.end.p0(i64 24, ptr nonnull %5) #11
  invoke void @_ZN2cv4cuda6GpuMat7releaseEv(ptr noundef nonnull align 8 dereferenceable(64) %4)
          to label %_ZN2cv4cuda6GpuMatD2Ev.exit unwind label %13

13:                                               ; preds = %12
  %14 = landingpad { ptr, i32 }
          catch ptr null
  %15 = extractvalue { ptr, i32 } %14, 0
  call void @__clang_call_terminate(ptr %15) #12
  unreachable

_ZN2cv4cuda6GpuMatD2Ev.exit:                      ; preds = %12
  call void @llvm.lifetime.end.p0(i64 64, ptr nonnull %4) #11
  call void @_ZN2cv3MatC1ERKS0_(ptr noundef nonnull align 8 dereferenceable(96) %0, ptr noundef nonnull align 8 dereferenceable(96) %2)
  br label %_ZNK2cv11_InputArray6getMatEi.exit

16:                                               ; preds = %9
  %17 = landingpad { ptr, i32 }
          cleanup
  call void @llvm.lifetime.end.p0(i64 24, ptr nonnull %5) #11
  invoke void @_ZN2cv4cuda6GpuMat7releaseEv(ptr noundef nonnull align 8 dereferenceable(64) %4)
          to label %_ZN2cv4cuda6GpuMatD2Ev.exit16 unwind label %18

18:                                               ; preds = %16
  %19 = landingpad { ptr, i32 }
          catch ptr null
  %20 = extractvalue { ptr, i32 } %19, 0
  call void @__clang_call_terminate(ptr %20) #12
  unreachable

_ZN2cv4cuda6GpuMatD2Ev.exit16:                    ; preds = %16
  call void @llvm.lifetime.end.p0(i64 64, ptr nonnull %4) #11
  br label %57

21:                                               ; preds = %3
  call void @llvm.lifetime.start.p0(i64 32, ptr nonnull %6) #11
  call void @_ZNK2cv11_InputArray12getOGlBufferEv(ptr dead_on_unwind nonnull writable sret(%"class.cv::ogl::Buffer") align 8 %6, ptr noundef nonnull align 8 dereferenceable(24) %1)
  call void @llvm.lifetime.start.p0(i64 24, ptr nonnull %7) #11
  %22 = getelementptr inbounds nuw i8, ptr %7, i64 8
  %23 = getelementptr inbounds nuw i8, ptr %7, i64 16
  store i64 0, ptr %23, align 8
  store i32 33619968, ptr %7, align 8, !tbaa !3
  store ptr %2, ptr %22, align 8, !tbaa !10
  invoke void @_ZNK2cv3ogl6Buffer6copyToERKNS_12_OutputArrayE(ptr noundef nonnull align 8 dereferenceable(28) %6, ptr noundef nonnull align 8 dereferenceable(24) %7)
          to label %24 unwind label %48

24:                                               ; preds = %21
  call void @llvm.lifetime.end.p0(i64 24, ptr nonnull %7) #11
  %25 = getelementptr inbounds nuw i8, ptr %6, i64 8
  %26 = load ptr, ptr %25, align 8, !tbaa !11
  %.not.i.i.i = icmp eq ptr %26, null
  br i1 %.not.i.i.i, label %_ZN2cv3ogl6BufferD2Ev.exit, label %27

27:                                               ; preds = %24
  %28 = getelementptr inbounds nuw i8, ptr %26, i64 8
  %29 = load atomic i64, ptr %28 acquire, align 8
  %30 = icmp eq i64 %29, 4294967297
  %31 = trunc i64 %29 to i32
  br i1 %30, label %32, label %40

32:                                               ; preds = %27
  store i32 0, ptr %28, align 8, !tbaa !14
  %33 = getelementptr inbounds nuw i8, ptr %26, i64 12
  store i32 0, ptr %33, align 4, !tbaa !16
  %34 = load ptr, ptr %26, align 8, !tbaa !17
  %35 = getelementptr inbounds nuw i8, ptr %34, i64 16
  %36 = load ptr, ptr %35, align 8
  call void %36(ptr noundef nonnull align 8 dereferenceable(16) %26) #11
  %37 = load ptr, ptr %26, align 8, !tbaa !17
  %38 = getelementptr inbounds nuw i8, ptr %37, i64 24
  %39 = load ptr, ptr %38, align 8
  call void %39(ptr noundef nonnull align 8 dereferenceable(16) %26) #11
  br label %_ZN2cv3ogl6BufferD2Ev.exit

40:                                               ; preds = %27
  %41 = load i8, ptr @__libc_single_threaded, align 1, !tbaa !19
  %.not.i.i.i.i = icmp eq i8 %41, 0
  br i1 %.not.i.i.i.i, label %44, label %42

42:                                               ; preds = %40
  %43 = add nsw i32 %31, -1
  store i32 %43, ptr %28, align 4, !tbaa !20
  br label %_ZN9__gnu_cxx27__exchange_and_add_dispatchEPii.exit.i.i.i.i

44:                                               ; preds = %40
  %45 = atomicrmw volatile add ptr %28, i32 -1 acq_rel, align 4
  br label %_ZN9__gnu_cxx27__exchange_and_add_dispatchEPii.exit.i.i.i.i

_ZN9__gnu_cxx27__exchange_and_add_dispatchEPii.exit.i.i.i.i: ; preds = %44, %42
  %.0.i.i.i.i.i = phi i32 [ %31, %42 ], [ %45, %44 ]
  %46 = icmp eq i32 %.0.i.i.i.i.i, 1
  br i1 %46, label %47, label %_ZN2cv3ogl6BufferD2Ev.exit, !prof !21

47:                                               ; preds = %_ZN9__gnu_cxx27__exchange_and_add_dispatchEPii.exit.i.i.i.i
  call void @_ZNSt16_Sp_counted_baseILN9__gnu_cxx12_Lock_policyE2EE24_M_release_last_use_coldEv(ptr noundef nonnull align 8 dereferenceable(16) %26) #11
  br label %_ZN2cv3ogl6BufferD2Ev.exit

_ZN2cv3ogl6BufferD2Ev.exit:                       ; preds = %24, %32, %_ZN9__gnu_cxx27__exchange_and_add_dispatchEPii.exit.i.i.i.i, %47
  call void @llvm.lifetime.end.p0(i64 32, ptr nonnull %6) #11
  call void @_ZN2cv3MatC1ERKS0_(ptr noundef nonnull align 8 dereferenceable(96) %0, ptr noundef nonnull align 8 dereferenceable(96) %2)
  br label %_ZNK2cv11_InputArray6getMatEi.exit

48:                                               ; preds = %21
  %49 = landingpad { ptr, i32 }
          cleanup
  call void @llvm.lifetime.end.p0(i64 24, ptr nonnull %7) #11
  call void @_ZN2cv3ogl6BufferD2Ev(ptr noundef nonnull align 8 dereferenceable(28) %6) #11
  call void @llvm.lifetime.end.p0(i64 32, ptr nonnull %6) #11
  br label %57

50:                                               ; preds = %3
  %51 = tail call noundef i32 @_ZNK2cv11_InputArray4kindEv(ptr noundef nonnull align 8 dereferenceable(24) %1), !noalias !22
  %52 = icmp eq i32 %51, 65536
  br i1 %52, label %53, label %56

53:                                               ; preds = %50
  %54 = getelementptr inbounds nuw i8, ptr %1, i64 8
  %55 = load ptr, ptr %54, align 8, !tbaa !10, !noalias !22
  tail call void @_ZN2cv3MatC1ERKS0_(ptr noundef nonnull align 8 dereferenceable(96) %0, ptr noundef nonnull align 8 dereferenceable(96) %55)
  br label %_ZNK2cv11_InputArray6getMatEi.exit

56:                                               ; preds = %50
  tail call void @_ZNK2cv11_InputArray7getMat_Ei(ptr dead_on_unwind writable sret(%"class.cv::Mat") align 8 %0, ptr noundef nonnull align 8 dereferenceable(24) %1, i32 noundef -1)
  br label %_ZNK2cv11_InputArray6getMatEi.exit

_ZNK2cv11_InputArray6getMatEi.exit:               ; preds = %56, %53, %_ZN2cv3ogl6BufferD2Ev.exit, %_ZN2cv4cuda6GpuMatD2Ev.exit
  ret void

57:                                               ; preds = %48, %_ZN2cv4cuda6GpuMatD2Ev.exit16
  %.pn.pn = phi { ptr, i32 } [ %49, %48 ], [ %17, %_ZN2cv4cuda6GpuMatD2Ev.exit16 ]
  resume { ptr, i32 } %.pn.pn
}